target datalayout = "e-m:e-p270:32:32-p271:32:32-p272:64:64-i64:64-i128:128-f80:128-n8:16:32:64-S128"
target triple = "x86_64-pc-linux-gnu"

%"class.ncnn::Mat" = type { ptr, ptr, i64, i32, ptr, i32, i32, i32, i32, i32, i64 }

; Function Attrs: alwaysinline mustprogress nounwind uwtable
define internal void @_ZN4ncnnL8fastFreeEPv(ptr noundef %0) #2 {
  %2 = alloca ptr, align 8
  store ptr %0, ptr %2, align 8, !tbaa !32
  %3 = load ptr, ptr %2, align 8, !tbaa !32
  %4 = icmp ne ptr %3, null
  br i1 %4, label %5, label %7

5:                                                ; preds = %1
  %6 = load ptr, ptr %2, align 8, !tbaa !32
  call void @free(ptr noundef %6) #9
  br label %7

7:                                                ; preds = %5, %1
  ret void
}

; Function Attrs: alwaysinline mustprogress nounwind uwtable
define internal noundef ptr @_ZN4ncnnL10fastMallocEm(i64 noundef %0) #2 {
  %2 = alloca i64, align 8
  %3 = alloca ptr, align 8
  store i64 %0, ptr %2, align 8, !tbaa !24
  call void @llvm.lifetime.start.p0(i64 8, ptr %3) #9
  store ptr null, ptr %3, align 8, !tbaa !32
  %4 = load i64, ptr %2, align 8, !tbaa !24
  %5 = add i64 %4, 64
  %6 = call i32 @posix_memalign(ptr noundef %3, i64 noundef 64, i64 noundef %5) #9
  %7 = icmp ne i32 %6, 0
  br i1 %7, label %8, label %9

8:                                                ; preds = %1
  store ptr null, ptr %3, align 8, !tbaa !32
  br label %9

9:                                                ; preds = %8, %1
  %10 = load ptr, ptr %3, align 8, !tbaa !32
  call void @llvm.lifetime.end.p0(i64 8, ptr %3) #9
  ret ptr %10
}

; Function Attrs: alwaysinline mustprogress nounwind uwtable
define linkonce_odr hidden noundef i64 @_ZNK4ncnn3Mat5totalEv(ptr noundef nonnull align 8 dereferenceable(72) %0) #2 comdat align 2 {
  %2 = alloca ptr, align 8
  store ptr %0, ptr %2, align 8, !tbaa !4
  %3 = load ptr, ptr %2, align 8
  %4 = getelementptr inbounds nuw %"class.ncnn::Mat", ptr %3, i32 0, i32 10
  %5 = load i64, ptr %4, align 8, !tbaa !22
  %6 = getelementptr inbounds nuw %"class.ncnn::Mat", ptr %3, i32 0, i32 9
  %7 = load i32, ptr %6, align 8, !tbaa !20
  %8 = sext i32 %7 to i64
  %9 = mul i64 %5, %8
  ret i64 %9
}

; Function Attrs: alwaysinline mustprogress nounwind uwtable
define internal noundef i64 @_ZN4ncnnL9alignSizeEmi(i64 noundef %0, i32 noundef %1) #2 {
  %3 = alloca i64, align 8
  %4 = alloca i32, align 4
  store i64 %0, ptr %3, align 8, !tbaa !24
  store i32 %1, ptr %4, align 4, !tbaa !25
  %5 = load i64, ptr %3, align 8, !tbaa !24
  %6 = load i32, ptr %4, align 4, !tbaa !25
  %7 = sext i32 %6 to i64
  %8 = add i64 %5, %7
  %9 = sub i64 %8, 1
  %10 = load i32, ptr %4, align 4, !tbaa !25
  %11 = sub nsw i32 0, %10
  %12 = sext i32 %11 to i64
  %13 = and i64 %9, %12
  ret i64 %13
}

; Function Attrs: alwaysinline mustprogress uwtable
define linkonce_odr hidden void @_ZN4ncnn3Mat7releaseEv(ptr noundef nonnull align 8 dereferenceable(72) %0) #1 comdat align 2 {
  %2 = alloca ptr, align 8
  %3 = alloca i32, align 4
  %4 = alloca i32, align 4
  store ptr %0, ptr %2, align 8, !tbaa !4
  %5 = load ptr, ptr %2, align 8
  %6 = getelementptr inbounds nuw %"class.ncnn::Mat", ptr %5, i32 0, i32 1
  %7 = load ptr, ptr %6, align 8, !tbaa !28
  %8 = icmp ne ptr %7, null
  br i1 %8, label %9, label %32

9:                                                ; preds = %1
  %10 = getelementptr inbounds nuw %"class.ncnn::Mat", ptr %5, i32 0, i32 1
  %11 = load ptr, ptr %10, align 8, !tbaa !28
  store i32 -1, ptr %3, align 4, !tbaa !25
  %12 = load i32, ptr %3, align 4
  %13 = atomicrmw add ptr %11, i32 %12 acq_rel, align 4
  store i32 %13, ptr %4, align 4
  %14 = load i32, ptr %4, align 4, !tbaa !25
  %15 = icmp eq i32 %14, 1
  br i1 %15, label %16, label %32

16:                                               ; preds = %9
  %17 = getelementptr inbounds nuw %"class.ncnn::Mat", ptr %5, i32 0, i32 4
  %18 = load ptr, ptr %17, align 8, !tbaa !29
  %19 = icmp ne ptr %18, null
  br i1 %19, label %20, label %28

20:                                               ; preds = %16
  %21 = getelementptr inbounds nuw %"class.ncnn::Mat", ptr %5, i32 0, i32 4
  %22 = load ptr, ptr %21, align 8, !tbaa !29
  %23 = getelementptr inbounds nuw %"class.ncnn::Mat", ptr %5, i32 0, i32 0
  %24 = load ptr, ptr %23, align 8, !tbaa !23
  %25 = load ptr, ptr %22, align 8, !tbaa !30
  %26 = getelementptr inbounds ptr, ptr %25, i64 3
  %27 = load ptr, ptr %26, align 8
  call void %27(ptr noundef nonnull align 8 dereferenceable(8) %22, ptr noundef %24)
  br label %31

28:                                               ; preds = %16
  %29 = getelementptr inbounds nuw %"class.ncnn::Mat", ptr %5, i32 0, i32 0
  %30 = load ptr, ptr %29, align 8, !tbaa !23
  call void @_ZN4ncnnL8fastFreeEPv(ptr noundef %30)
  br label %31

31:                                               ; preds = %28, %20
  br label %32

32:                                               ; preds = %31, %9, %1
  %33 = getelementptr inbounds nuw %"class.ncnn::Mat", ptr %5, i32 0, i32 0
  store ptr null, ptr %33, align 8, !tbaa !23
  %34 = getelementptr inbounds nuw %"class.ncnn::Mat", ptr %5, i32 0, i32 2
  store i64 0, ptr %34, align 8, !tbaa !17
  %35 = getelementptr inbounds nuw %"class.ncnn::Mat", ptr %5, i32 0, i32 3
  store i32 0, ptr %35, align 8, !tbaa !18
  %36 = getelementptr inbounds nuw %"class.ncnn::Mat", ptr %5, i32 0, i32 5
  store i32 0, ptr %36, align 8, !tbaa !11
  %37 = getelementptr inbounds nuw %"class.ncnn::Mat", ptr %5, i32 0, i32 6
  store i32 0, ptr %37, align 4, !tbaa !16
  %38 = getelementptr inbounds nuw %"class.ncnn::Mat", ptr %5, i32 0, i32 7
  store i32 0, ptr %38, align 8, !tbaa !19
  %39 = getelementptr inbounds nuw %"class.ncnn::Mat", ptr %5, i32 0, i32 8
  store i32 0, ptr %39, align 4, !tbaa !21
  %40 = getelementptr inbounds nuw %"class.ncnn::Mat", ptr %5, i32 0, i32 9
  store i32 0, ptr %40, align 8, !tbaa !20
  %41 = getelementptr inbounds nuw %"class.ncnn::Mat", ptr %5, i32 0, i32 10
  store i64 0, ptr %41, align 8, !tbaa !22
  %42 = getelementptr inbounds nuw %"class.ncnn::Mat", ptr %5, i32 0, i32 1
  store ptr null, ptr %42, align 8, !tbaa !28
  ret void
}

; Function Attrs: mustprogress uwtable
define hidden void @_ZN4ncnn3Mat6createEiiimiPNS_9AllocatorE(ptr noundef nonnull align 8 dereferenceable(72) %0, i32 noundef %1, i32 noundef %2, i32 noundef %3, i64 noundef %4, i32 noundef %5, ptr noundef %6) #0 align 2 {
  %8 = alloca ptr, align 8
  %9 = alloca i32, align 4
  %10 = alloca i32, align 4
  %11 = alloca i32, align 4
  %12 = alloca i64, align 8
  %13 = alloca i32, align 4
  %14 = alloca ptr, align 8
  %15 = alloca i64, align 8
  store ptr %0, ptr %8, align 8, !tbaa !4
  store i32 %1, ptr %9, align 4, !tbaa !25
  store i32 %2, ptr %10, align 4, !tbaa !25
  store i32 %3, ptr %11, align 4, !tbaa !25
  store i64 %4, ptr %12, align 8, !tbaa !24
  store i32 %5, ptr %13, align 4, !tbaa !25
  store ptr %6, ptr %14, align 8, !tbaa !9
  %16 = load ptr, ptr %8, align 8
  %17 = getelementptr inbounds nuw %"class.ncnn::Mat", ptr %16, i32 0, i32 5
  %18 = load i32, ptr %17, align 8, !tbaa !11
  %19 = icmp eq i32 %18, 3
  br i1 %19, label %20, label %51

20:                                               ; preds = %7
  %21 = getelementptr inbounds nuw %"class.ncnn::Mat", ptr %16, i32 0, i32 6
  %22 = load i32, ptr %21, align 4, !tbaa !16
  %23 = load i32, ptr %9, align 4, !tbaa !25
  %24 = icmp eq i32 %22, %23
  br i1 %24, label %25, label %51

25:                                               ; preds = %20
  %26 = getelementptr inbounds nuw %"class.ncnn::Mat", ptr %16, i32 0, i32 7
  %27 = load i32, ptr %26, align 8, !tbaa !19
  %28 = load i32, ptr %10, align 4, !tbaa !25
  %29 = icmp eq i32 %27, %28
  br i1 %29, label %30, label %51

30:                                               ; preds = %25
  %31 = getelementptr inbounds nuw %"class.ncnn::Mat", ptr %16, i32 0, i32 9
  %32 = load i32, ptr %31, align 8, !tbaa !20
  %33 = load i32, ptr %11, align 4, !tbaa !25
  %34 = icmp eq i32 %32, %33
  br i1 %34, label %35, label %51

35:                                               ; preds = %30
  %36 = getelementptr inbounds nuw %"class.ncnn::Mat", ptr %16, i32 0, i32 2
  %37 = load i64, ptr %36, align 8, !tbaa !17
  %38 = load i64, ptr %12, align 8, !tbaa !24
  %39 = icmp eq i64 %37, %38
  br i1 %39, label %40, label %51

40:                                               ; preds = %35
  %41 = getelementptr inbounds nuw %"class.ncnn::Mat", ptr %16, i32 0, i32 3
  %42 = load i32, ptr %41, align 8, !tbaa !18
  %43 = load i32, ptr %13, align 4, !tbaa !25
  %44 = icmp eq i32 %42, %43
  br i1 %44, label %45, label %51

45:                                               ; preds = %40
  %46 = getelementptr inbounds nuw %"class.ncnn::Mat", ptr %16, i32 0, i32 4
  %47 = load ptr, ptr %46, align 8, !tbaa !29
  %48 = load ptr, ptr %14, align 8, !tbaa !9
  %49 = icmp eq ptr %47, %48
  br i1 %49, label %50, label %51

50:                                               ; preds = %45
  br label %121

51:                                               ; preds = %45, %40, %35, %30, %25, %20, %7
  call void @_ZN4ncnn3Mat7releaseEv(ptr noundef nonnull align 8 dereferenceable(72) %16)
  %52 = load i64, ptr %12, align 8, !tbaa !24
  %53 = getelementptr inbounds nuw %"class.ncnn::Mat", ptr %16, i32 0, i32 2
  store i64 %52, ptr %53, align 8, !tbaa !17
  %54 = load i32, ptr %13, align 4, !tbaa !25
  %55 = getelementptr inbounds nuw %"class.ncnn::Mat", ptr %16, i32 0, i32 3
  store i32 %54, ptr %55, align 8, !tbaa !18
  %56 = load ptr, ptr %14, align 8, !tbaa !9
  %57 = getelementptr inbounds nuw %"class.ncnn::Mat", ptr %16, i32 0, i32 4
  store ptr %56, ptr %57, align 8, !tbaa !29
  %58 = getelementptr inbounds nuw %"class.ncnn::Mat", ptr %16, i32 0, i32 5
  store i32 3, ptr %58, align 8, !tbaa !11
  %59 = load i32, ptr %9, align 4, !tbaa !25
  %60 = getelementptr inbounds nuw %"class.ncnn::Mat", ptr %16, i32 0, i32 6
  store i32 %59, ptr %60, align 4, !tbaa !16
  %61 = load i32, ptr %10, align 4, !tbaa !25
  %62 = getelementptr inbounds nuw %"class.ncnn::Mat", ptr %16, i32 0, i32 7
  store i32 %61, ptr %62, align 8, !tbaa !19
  %63 = getelementptr inbounds nuw %"class.ncnn::Mat", ptr %16, i32 0, i32 8
  store i32 1, ptr %63, align 4, !tbaa !21
  %64 = load i32, ptr %11, align 4, !tbaa !25
  %65 = getelementptr inbounds nuw %"class.ncnn::Mat", ptr %16, i32 0, i32 9
  store i32 %64, ptr %65, align 8, !tbaa !20
  %66 = getelementptr inbounds nuw %"class.ncnn::Mat", ptr %16, i32 0, i32 6
  %67 = load i32, ptr %66, align 4, !tbaa !16
  %68 = sext i32 %67 to i64
  %69 = getelementptr inbounds nuw %"class.ncnn::Mat", ptr %16, i32 0, i32 7
  %70 = load i32, ptr %69, align 8, !tbaa !19
  %71 = sext i32 %70 to i64
  %72 = mul i64 %68, %71
  %73 = getelementptr inbounds nuw %"class.ncnn::Mat", ptr %16, i32 0, i32 2
  %74 = load i64, ptr %73, align 8, !tbaa !17
  %75 = mul i64 %72, %74
  %76 = call noundef i64 @_ZN4ncnnL9alignSizeEmi(i64 noundef %75, i32 noundef 16)
  %77 = getelementptr inbounds nuw %"class.ncnn::Mat", ptr %16, i32 0, i32 2
  %78 = load i64, ptr %77, align 8, !tbaa !17
  %79 = udiv i64 %76, %78
  %80 = getelementptr inbounds nuw %"class.ncnn::Mat", ptr %16, i32 0, i32 10
  store i64 %79, ptr %80, align 8, !tbaa !22
  call void @llvm.lifetime.start.p0(i64 8, ptr %15) #9
  %81 = call noundef i64 @_ZNK4ncnn3Mat5totalEv(ptr noundef nonnull align 8 dereferenceable(72) %16)
  %82 = getelementptr inbounds nuw %"class.ncnn::Mat", ptr %16, i32 0, i32 2
  %83 = load i64, ptr %82, align 8, !tbaa !17
  %84 = mul i64 %81, %83
  %85 = call noundef i64 @_ZN4ncnnL9alignSizeEmi(i64 noundef %84, i32 noundef 4)
  store i64 %85, ptr %15, align 8, !tbaa !24
  %86 = load i64, ptr %15, align 8, !tbaa !24
  %87 = icmp ugt i64 %86, 0
  br i1 %87, label %88, label %108

88:                                               ; preds = %51
  %89 = getelementptr inbounds nuw %"class.ncnn::Mat", ptr %16, i32 0, i32 4
  %90 = load ptr, ptr %89, align 8, !tbaa !29
  %91 = icmp ne ptr %90, null
  br i1 %91, label %92, label %102

92:                                               ; preds = %88
  %93 = getelementptr inbounds nuw %"class.ncnn::Mat", ptr %16, i32 0, i32 4
  %94 = load ptr, ptr %93, align 8, !tbaa !29
  %95 = load i64, ptr %15, align 8, !tbaa !24
  %96 = add i64 %95, 4
  %97 = load ptr, ptr %94, align 8, !tbaa !30
  %98 = getelementptr inbounds ptr, ptr %97, i64 2
  %99 = load ptr, ptr %98, align 8
  %100 = call noundef ptr %99(ptr noundef nonnull align 8 dereferenceable(8) %94, i64 noundef %96)
  %101 = getelementptr inbounds nuw %"class.ncnn::Mat", ptr %16, i32 0, i32 0
  store ptr %100, ptr %101, align 8, !tbaa !23
  br label %107

102:                                              ; preds = %88
  %103 = load i64, ptr %15, align 8, !tbaa !24
  %104 = add i64 %103, 4
  %105 = call noundef ptr @_ZN4ncnnL10fastMallocEm(i64 noundef %104)
  %106 = getelementptr inbounds nuw %"class.ncnn::Mat", ptr %16, i32 0, i32 0
  store ptr %105, ptr %106, align 8, !tbaa !23
  br label %107

107:                                              ; preds = %102, %92
  br label %108

108:                                              ; preds = %107, %51
  %109 = getelementptr inbounds nuw %"class.ncnn::Mat", ptr %16, i32 0, i32 0
  %110 = load ptr, ptr %109, align 8, !tbaa !23
  %111 = icmp ne ptr %110, null
  br i1 %111, label %112, label %120

112:                                              ; preds = %108
  %113 = getelementptr inbounds nuw %"class.ncnn::Mat", ptr %16, i32 0, i32 0
  %114 = load ptr, ptr %113, align 8, !tbaa !23
  %115 = load i64, ptr %15, align 8, !tbaa !24
  %116 = getelementptr inbounds nuw i8, ptr %114, i64 %115
  %117 = getelementptr inbounds nuw %"class.ncnn::Mat", ptr %16, i32 0, i32 1
  store ptr %116, ptr %117, align 8, !tbaa !28
  %118 = getelementptr inbounds nuw %"class.ncnn::Mat", ptr %16, i32 0, i32 1
  %119 = load ptr, ptr %118, align 8, !tbaa !28
  store i32 1, ptr %119, align 4, !tbaa !25
  br label %120

120:                                              ; preds = %112, %108
  call void @llvm.lifetime.end.p0(i64 8, ptr %15) #9
  br label %121

121:                                              ; preds = %120, %50
  ret void
}