; Function Attrs: mustprogress uwtable
define hidden void @_ZN4ncnn3Mat6createEiiimiPNS_9AllocatorE(ptr noundef nonnull align 8 captures(none) dereferenceable(72) %0, i32 noundef %1, i32 noundef %2, i32 noundef %3, i64 noundef %4, i32 noundef %5, ptr noundef %6) local_unnamed_addr #0 align 2 {
  %8 = alloca ptr, align 8
  %9 = getelementptr inbounds nuw i8, ptr %0, i64 40
  %10 = load i32, ptr %9, align 8, !tbaa !15
  %11 = icmp eq i32 %10, 3
  %12 = getelementptr inbounds nuw i8, ptr %0, i64 44
  %13 = load i32, ptr %12, align 4
  %14 = icmp eq i32 %13, %1
  %or.cond = select i1 %11, i1 %14, i1 false
  %15 = getelementptr inbounds nuw i8, ptr %0, i64 48
  %16 = load i32, ptr %15, align 8
  %17 = icmp eq i32 %16, %2
  %or.cond24 = select i1 %or.cond, i1 %17, i1 false
  %18 = getelementptr inbounds nuw i8, ptr %0, i64 56
  %19 = load i32, ptr %18, align 8
  %20 = icmp eq i32 %19, %3
  %or.cond27 = select i1 %or.cond24, i1 %20, i1 false
  %21 = getelementptr inbounds nuw i8, ptr %0, i64 16
  %22 = load i64, ptr %21, align 8
  %23 = icmp eq i64 %22, %4
  %or.cond30 = select i1 %or.cond27, i1 %23, i1 false
  %24 = getelementptr inbounds nuw i8, ptr %0, i64 24
  %25 = load i32, ptr %24, align 8
  %26 = icmp eq i32 %25, %5
  %or.cond33 = select i1 %or.cond30, i1 %26, i1 false
  %27 = getelementptr inbounds nuw i8, ptr %0, i64 32
  %28 = load ptr, ptr %27, align 8
  %29 = icmp eq ptr %28, %6
  %or.cond36 = select i1 %or.cond33, i1 %29, i1 false
  br i1 %or.cond36, label %thread-pre-split.thread, label %30

30:                                               ; preds = %7
  %31 = getelementptr inbounds nuw i8, ptr %0, i64 8
  %32 = load ptr, ptr %31, align 8, !tbaa !19
  %.not.i = icmp eq ptr %32, null
  br i1 %.not.i, label %_ZN4ncnn3Mat7releaseEv.exit, label %33

33:                                               ; preds = %30
  %34 = atomicrmw add ptr %32, i32 -1 acq_rel, align 4
  %35 = icmp eq i32 %34, 1
  br i1 %35, label %36, label %_ZN4ncnn3Mat7releaseEv.exit

36:                                               ; preds = %33
  %37 = load ptr, ptr %27, align 8, !tbaa !30
  %.not3.i = icmp eq ptr %37, null
  %38 = load ptr, ptr %0, align 8, !tbaa !4
  br i1 %.not3.i, label %43, label %39

39:                                               ; preds = %36
  %40 = load ptr, ptr %37, align 8, !tbaa !31
  %41 = getelementptr inbounds nuw i8, ptr %40, i64 24
  %42 = load ptr, ptr %41, align 8
  tail call void %42(ptr noundef nonnull align 8 dereferenceable(8) %37, ptr noundef %38)
  br label %_ZN4ncnn3Mat7releaseEv.exit

43:                                               ; preds = %36
  %.not.i37 = icmp eq ptr %38, null
  br i1 %.not.i37, label %_ZN4ncnn3Mat7releaseEv.exit, label %44

44:                                               ; preds = %43
  tail call void @free(ptr noundef nonnull %38) #12
  br label %_ZN4ncnn3Mat7releaseEv.exit

_ZN4ncnn3Mat7releaseEv.exit:                      ; preds = %44, %43, %30, %33, %39
  %45 = getelementptr inbounds nuw i8, ptr %0, i64 52
  %46 = getelementptr inbounds nuw i8, ptr %0, i64 64
  tail call void @llvm.memset.p0.i64(ptr noundef nonnull align 8 dereferenceable(16) %0, i8 0, i64 16, i1 false)
  store i64 %4, ptr %21, align 8, !tbaa !17
  store i32 %5, ptr %24, align 8, !tbaa !18
  store ptr %6, ptr %27, align 8, !tbaa !30
  store i32 3, ptr %9, align 8, !tbaa !15
  store i32 %1, ptr %12, align 4, !tbaa !16
  store i32 %2, ptr %15, align 8, !tbaa !20
  store i32 1, ptr %45, align 4, !tbaa !21
  store i32 %3, ptr %18, align 8, !tbaa !14
  %47 = sext i32 %1 to i64
  %48 = sext i32 %2 to i64
  %49 = mul nsw i64 %48, %47
  %50 = mul i64 %49, %4
  %51 = add i64 %50, 15
  %52 = and i64 %51, -16
  %53 = udiv i64 %52, %4
  store i64 %53, ptr %46, align 8, !tbaa !13
  %54 = sext i32 %3 to i64
  %55 = mul i64 %4, %54
  %56 = mul i64 %55, %53
  %57 = add i64 %56, 3
  %58 = and i64 %57, -4
  %.not = icmp eq i64 %58, 0
  br i1 %.not, label %thread-pre-split.thread, label %59

59:                                               ; preds = %_ZN4ncnn3Mat7releaseEv.exit
  %.not18 = icmp eq ptr %6, null
  br i1 %.not18, label %_ZN4ncnnL10fastMallocEm.exit, label %60

60:                                               ; preds = %59
  %61 = add i64 %58, 4
  %62 = load ptr, ptr %6, align 8, !tbaa !31
  %63 = getelementptr inbounds nuw i8, ptr %62, i64 16
  %64 = load ptr, ptr %63, align 8
  %65 = tail call noundef ptr %64(ptr noundef nonnull align 8 dereferenceable(8) %6, i64 noundef %61)
  br label %thread-pre-split

_ZN4ncnnL10fastMallocEm.exit:                     ; preds = %59
  call void @llvm.lifetime.start.p0(i64 8, ptr nonnull %8) #12
  store ptr null, ptr %8, align 8, !tbaa !33
  %66 = add i64 %58, 68
  %67 = call i32 @posix_memalign(ptr noundef nonnull %8, i64 noundef 64, i64 noundef %66) #12
  %.not.i38 = icmp eq i32 %67, 0
  %.pre = load ptr, ptr %8, align 8
  %68 = select i1 %.not.i38, ptr %.pre, ptr null
  call void @llvm.lifetime.end.p0(i64 8, ptr nonnull %8) #12
  br label %thread-pre-split

thread-pre-split:                                 ; preds = %60, %_ZN4ncnnL10fastMallocEm.exit
  %.sink = phi ptr [ %65, %60 ], [ %68, %_ZN4ncnnL10fastMallocEm.exit ]
  store ptr %.sink, ptr %0, align 8, !tbaa !4
  %.not19 = icmp eq ptr %.sink, null
  br i1 %.not19, label %thread-pre-split.thread, label %69

69:                                               ; preds = %thread-pre-split
  %70 = getelementptr inbounds nuw i8, ptr %.sink, i64 %58
  store ptr %70, ptr %31, align 8, !tbaa !19
  store i32 1, ptr %70, align 4, !tbaa !34
  br label %thread-pre-split.thread

thread-pre-split.thread:                          ; preds = %_ZN4ncnn3Mat7releaseEv.exit, %thread-pre-split, %69, %7
  ret void
}